; Function Attrs: mustprogress nounwind uwtable
define dso_local void @_ZN33btConvexConcaveCollisionAlgorithmD0Ev(ptr noundef nonnull align 8 dereferenceable(113) initializes((0, 8), (16, 24)) %0) unnamed_addr #3 align 2 personality ptr @__gxx_personality_v0 {
  store ptr getelementptr inbounds nuw inrange(-16, 40) (i8, ptr @_ZTV33btConvexConcaveCollisionAlgorithm, i64 16), ptr %0, align 8, !tbaa !4
  %2 = getelementptr inbounds nuw i8, ptr %0, i64 16
  store ptr getelementptr inbounds nuw inrange(-16, 24) (i8, ptr @_ZTV24btConvexTriangleCallback, i64 16), ptr %2, align 8, !tbaa !4
  %3 = getelementptr inbounds nuw i8, ptr %0, i64 80
  %4 = load ptr, ptr %3, align 8, !tbaa !13
  %5 = getelementptr inbounds nuw i8, ptr %0, i64 104
  %6 = load ptr, ptr %5, align 8, !tbaa !30
  %7 = load ptr, ptr %4, align 8, !tbaa !4
  %8 = getelementptr inbounds nuw i8, ptr %7, i64 40
  %9 = load ptr, ptr %8, align 8
  invoke void %9(ptr noundef nonnull align 8 dereferenceable(8) %4, ptr noundef %6)
          to label %_ZN24btConvexTriangleCallback10clearCacheEv.exit.i.i unwind label %15

_ZN24btConvexTriangleCallback10clearCacheEv.exit.i.i: ; preds = %1
  %10 = load ptr, ptr %3, align 8, !tbaa !13
  %11 = load ptr, ptr %5, align 8, !tbaa !30
  %12 = load ptr, ptr %10, align 8, !tbaa !4
  %13 = getelementptr inbounds nuw i8, ptr %12, i64 32
  %14 = load ptr, ptr %13, align 8
  invoke void %14(ptr noundef nonnull align 8 dereferenceable(8) %10, ptr noundef %11)
          to label %_ZN33btConvexConcaveCollisionAlgorithmD2Ev.exit unwind label %15

15:                                               ; preds = %_ZN24btConvexTriangleCallback10clearCacheEv.exit.i.i, %1
  %16 = landingpad { ptr, i32 }
          catch ptr null
  %17 = extractvalue { ptr, i32 } %16, 0
  tail call void @__clang_call_terminate(ptr %17) #16
  unreachable

_ZN33btConvexConcaveCollisionAlgorithmD2Ev.exit:  ; preds = %_ZN24btConvexTriangleCallback10clearCacheEv.exit.i.i
  tail call void @_ZN18btTriangleCallbackD2Ev(ptr noundef nonnull align 8 dereferenceable(96) %2) #15
  tail call void @_ZN30btActivatingCollisionAlgorithmD2Ev(ptr noundef nonnull align 8 dereferenceable(113) %0) #15
  invoke void @_Z21btAlignedFreeInternalPv(ptr noundef nonnull %0)
          to label %_ZN33btConvexConcaveCollisionAlgorithmdlEPv.exit unwind label %18

18:                                               ; preds = %_ZN33btConvexConcaveCollisionAlgorithmD2Ev.exit
  %19 = landingpad { ptr, i32 }
          catch ptr null
  %20 = extractvalue { ptr, i32 } %19, 0
  tail call void @__clang_call_terminate(ptr %20) #16
  unreachable

_ZN33btConvexConcaveCollisionAlgorithmdlEPv.exit: ; preds = %_ZN33btConvexConcaveCollisionAlgorithmD2Ev.exit
  ret void
}